target datalayout = "e-m:e-p270:32:32-p271:32:32-p272:64:64-i64:64-i128:128-f80:128-n8:16:32:64-S128"
target triple = "x86_64-pc-linux-gnu"

%struct.nameData = type { [64 x i8] }
%struct.RelationData = type { %struct.RelFileLocator, ptr, i32, i32, i8, i8, i8, i8, i8, i32, i32, i32, i32, ptr, ptr, i32, %struct.LockInfoData, ptr, ptr, ptr, ptr, ptr, i8, ptr, ptr, ptr, ptr, ptr, ptr, i32, ptr, i8, ptr, ptr, i32, i8, i32, ptr, i8, ptr, ptr, ptr, ptr, ptr, ptr, ptr, i32, ptr, ptr, ptr, ptr, ptr, ptr, ptr, ptr, ptr, ptr, ptr, ptr, ptr, ptr, ptr, ptr, ptr, ptr, ptr, i32, i8, ptr }
%struct.RelFileLocator = type { i32, i32, i32 }
%struct.LockInfoData = type { %struct.LockRelId }
%struct.LockRelId = type { i32, i32 }
%struct.HeapTupleData = type { i32, %struct.ItemPointerData, i32, ptr }
%struct.ItemPointerData = type { %struct.BlockIdData, i16 }
%struct.BlockIdData = type { i16, i16 }
%struct.HeapTupleHeaderData = type { %union.anon, %struct.ItemPointerData, i16, i16, i8, [0 x i8] }
%union.anon = type { %struct.HeapTupleFields }
%struct.HeapTupleFields = type { i32, i32, %union.anon.0 }
%union.anon.0 = type { i32 }
%struct.CompactAttribute = type { i32, i16, i8, i8, i8, i8, i8, i8, i8 }
%struct.ForEachState = type { ptr, i32 }
%struct.List = type { i32, i32, i32, ptr, [0 x %union.ListCell] }
%union.ListCell = type { ptr }
%struct.TupleDescData = type { i32, i32, i32, i32, ptr, [0 x %struct.CompactAttribute] }
%struct.FormData_pg_attribute = type { i32, %struct.nameData, i32, i16, i16, i32, i16, i8, i8, i8, i8, i8, i8, i8, i8, i8, i8, i8, i16, i32 }

@CacheMemoryContext = external global ptr, align 8
@CurrentMemoryContext = external global ptr, align 8
@GetPgIndexDescriptor.pgindexdesc = internal global ptr null, align 8

; Function Attrs: inlinehint nounwind uwtable
define internal ptr @TupleDescCompactAttr(ptr noundef %0, i32 noundef %1) #3 {
  %3 = alloca ptr, align 8
  %4 = alloca i32, align 4
  %5 = alloca ptr, align 8
  store ptr %0, ptr %3, align 8
  store i32 %1, ptr %4, align 4
  call void @llvm.lifetime.start.p0(i64 8, ptr %5) #11
  %6 = load ptr, ptr %3, align 8
  %7 = getelementptr inbounds nuw %struct.TupleDescData, ptr %6, i32 0, i32 5
  %8 = load i32, ptr %4, align 4
  %9 = sext i32 %8 to i64
  %10 = getelementptr inbounds [0 x %struct.CompactAttribute], ptr %7, i64 0, i64 %9
  store ptr %10, ptr %5, align 8
  %11 = load ptr, ptr %5, align 8
  call void @llvm.lifetime.end.p0(i64 8, ptr %5) #11
  ret ptr %11
}

; Function Attrs: inlinehint nounwind uwtable
define internal ptr @TupleDescAttr(ptr noundef %0, i32 noundef %1) #3 {
  %3 = alloca ptr, align 8
  %4 = alloca i32, align 4
  %5 = alloca ptr, align 8
  store ptr %0, ptr %3, align 8
  store i32 %1, ptr %4, align 4
  call void @llvm.lifetime.start.p0(i64 8, ptr %5) #11
  %6 = load ptr, ptr %3, align 8
  %7 = load ptr, ptr %3, align 8
  %8 = getelementptr inbounds nuw %struct.TupleDescData, ptr %7, i32 0, i32 0
  %9 = load i32, ptr %8, align 8
  %10 = sext i32 %9 to i64
  %11 = mul i64 %10, 16
  %12 = add i64 24, %11
  %13 = getelementptr inbounds nuw i8, ptr %6, i64 %12
  store ptr %13, ptr %5, align 8
  %14 = load ptr, ptr %5, align 8
  %15 = load i32, ptr %4, align 4
  %16 = sext i32 %15 to i64
  %17 = getelementptr inbounds %struct.FormData_pg_attribute, ptr %14, i64 %16
  call void @llvm.lifetime.end.p0(i64 8, ptr %5) #11
  ret ptr %17
}

; Function Attrs: inlinehint nounwind uwtable
define internal ptr @MemoryContextSwitchTo(ptr noundef %0) #3 {
  %2 = alloca ptr, align 8
  %3 = alloca ptr, align 8
  store ptr %0, ptr %2, align 8
  call void @llvm.lifetime.start.p0(i64 8, ptr %3) #11
  %4 = load ptr, ptr @CurrentMemoryContext, align 8
  store ptr %4, ptr %3, align 8
  %5 = load ptr, ptr %2, align 8
  store ptr %5, ptr @CurrentMemoryContext, align 8
  %6 = load ptr, ptr %3, align 8
  call void @llvm.lifetime.end.p0(i64 8, ptr %3) #11
  ret ptr %6
}

; Function Attrs: nounwind uwtable
define internal ptr @BuildHardcodedDescriptor(i32 noundef %0, ptr noundef %1) #0 {
  %3 = alloca i32, align 4
  %4 = alloca ptr, align 8
  %5 = alloca ptr, align 8
  %6 = alloca ptr, align 8
  %7 = alloca i32, align 4
  store i32 %0, ptr %3, align 4
  store ptr %1, ptr %4, align 8
  call void @llvm.lifetime.start.p0(i64 8, ptr %5) #11
  call void @llvm.lifetime.start.p0(i64 8, ptr %6) #11
  call void @llvm.lifetime.start.p0(i64 4, ptr %7) #11
  %8 = load ptr, ptr @CacheMemoryContext, align 8
  %9 = call ptr @MemoryContextSwitchTo(ptr noundef %8)
  store ptr %9, ptr %6, align 8
  %10 = load i32, ptr %3, align 4
  %11 = call ptr @CreateTemplateTupleDesc(i32 noundef %10)
  store ptr %11, ptr %5, align 8
  %12 = load ptr, ptr %5, align 8
  %13 = getelementptr inbounds nuw %struct.TupleDescData, ptr %12, i32 0, i32 1
  store i32 2249, ptr %13, align 4
  %14 = load ptr, ptr %5, align 8
  %15 = getelementptr inbounds nuw %struct.TupleDescData, ptr %14, i32 0, i32 2
  store i32 -1, ptr %15, align 8
  store i32 0, ptr %7, align 4
  br label %16

16:                                               ; preds = %30, %2
  %17 = load i32, ptr %7, align 4
  %18 = load i32, ptr %3, align 4
  %19 = icmp slt i32 %17, %18
  br i1 %19, label %20, label %33

20:                                               ; preds = %16
  %21 = load ptr, ptr %5, align 8
  %22 = load i32, ptr %7, align 4
  %23 = call ptr @TupleDescAttr(ptr noundef %21, i32 noundef %22)
  %24 = load ptr, ptr %4, align 8
  %25 = load i32, ptr %7, align 4
  %26 = sext i32 %25 to i64
  %27 = getelementptr inbounds %struct.FormData_pg_attribute, ptr %24, i64 %26
  call void @llvm.memcpy.p0.p0.i64(ptr align 4 %23, ptr align 4 %27, i64 100, i1 false)
  %28 = load ptr, ptr %5, align 8
  %29 = load i32, ptr %7, align 4
  call void @populate_compact_attribute(ptr noundef %28, i32 noundef %29)
  br label %30

30:                                               ; preds = %20
  %31 = load i32, ptr %7, align 4
  %32 = add i32 %31, 1
  store i32 %32, ptr %7, align 4
  br label %16, !llvm.loop !52

33:                                               ; preds = %16
  %34 = load ptr, ptr %5, align 8
  %35 = call ptr @TupleDescCompactAttr(ptr noundef %34, i32 noundef 0)
  %36 = getelementptr inbounds nuw %struct.CompactAttribute, ptr %35, i32 0, i32 0
  store i32 0, ptr %36, align 4
  %37 = load ptr, ptr %6, align 8
  %38 = call ptr @MemoryContextSwitchTo(ptr noundef %37)
  %39 = load ptr, ptr %5, align 8
  call void @llvm.lifetime.end.p0(i64 4, ptr %7) #11
  call void @llvm.lifetime.end.p0(i64 8, ptr %6) #11
  call void @llvm.lifetime.end.p0(i64 8, ptr %5) #11
  ret ptr %39
}

; Function Attrs: inlinehint nounwind uwtable
define internal ptr @DatumGetPointer(i64 noundef %0) #3 {
  %2 = alloca i64, align 8
  store i64 %0, ptr %2, align 8
  %3 = load i64, ptr %2, align 8
  %4 = inttoptr i64 %3 to ptr
  ret ptr %4
}

; Function Attrs: inlinehint nounwind uwtable
define internal i64 @heap_getattr(ptr noundef %0, i32 noundef %1, ptr noundef %2, ptr noundef %3) #3 {
  %5 = alloca i64, align 8
  %6 = alloca ptr, align 8
  %7 = alloca i32, align 4
  %8 = alloca ptr, align 8
  %9 = alloca ptr, align 8
  store ptr %0, ptr %6, align 8
  store i32 %1, ptr %7, align 4
  store ptr %2, ptr %8, align 8
  store ptr %3, ptr %9, align 8
  %10 = load i32, ptr %7, align 4
  %11 = icmp sgt i32 %10, 0
  br i1 %11, label %12, label %33

12:                                               ; preds = %4
  %13 = load i32, ptr %7, align 4
  %14 = load ptr, ptr %6, align 8
  %15 = getelementptr inbounds nuw %struct.HeapTupleData, ptr %14, i32 0, i32 3
  %16 = load ptr, ptr %15, align 8
  %17 = getelementptr inbounds nuw %struct.HeapTupleHeaderData, ptr %16, i32 0, i32 2
  %18 = load i16, ptr %17, align 2
  %19 = zext i16 %18 to i32
  %20 = and i32 %19, 2047
  %21 = icmp sgt i32 %13, %20
  br i1 %21, label %22, label %27

22:                                               ; preds = %12
  %23 = load ptr, ptr %8, align 8
  %24 = load i32, ptr %7, align 4
  %25 = load ptr, ptr %9, align 8
  %26 = call i64 @getmissingattr(ptr noundef %23, i32 noundef %24, ptr noundef %25)
  store i64 %26, ptr %5, align 8
  br label %39

27:                                               ; preds = %12
  %28 = load ptr, ptr %6, align 8
  %29 = load i32, ptr %7, align 4
  %30 = load ptr, ptr %8, align 8
  %31 = load ptr, ptr %9, align 8
  %32 = call i64 @fastgetattr(ptr noundef %28, i32 noundef %29, ptr noundef %30, ptr noundef %31)
  store i64 %32, ptr %5, align 8
  br label %39

33:                                               ; preds = %4
  %34 = load ptr, ptr %6, align 8
  %35 = load i32, ptr %7, align 4
  %36 = load ptr, ptr %8, align 8
  %37 = load ptr, ptr %9, align 8
  %38 = call i64 @heap_getsysattr(ptr noundef %34, i32 noundef %35, ptr noundef %36, ptr noundef %37)
  store i64 %38, ptr %5, align 8
  br label %39

39:                                               ; preds = %33, %27, %22
  %40 = load i64, ptr %5, align 8
  ret i64 %40
}

; Function Attrs: nounwind uwtable
define internal ptr @GetPgIndexDescriptor() #0 {
  %1 = load ptr, ptr @GetPgIndexDescriptor.pgindexdesc, align 8
  %2 = icmp eq ptr %1, null
  br i1 %2, label %3, label %5

3:                                                ; preds = %0
  %4 = call ptr @BuildHardcodedDescriptor(i32 noundef 21, ptr noundef @Desc_pg_index)
  store ptr %4, ptr @GetPgIndexDescriptor.pgindexdesc, align 8
  br label %5

5:                                                ; preds = %3, %0
  %6 = load ptr, ptr @GetPgIndexDescriptor.pgindexdesc, align 8
  ret ptr %6
}

; Function Attrs: nounwind uwtable
define dso_local ptr @RelationGetDummyIndexExpressions(ptr noundef %0) #0 {
  %2 = alloca ptr, align 8
  %3 = alloca ptr, align 8
  %4 = alloca ptr, align 8
  %5 = alloca i64, align 8
  %6 = alloca i8, align 1
  %7 = alloca ptr, align 8
  %8 = alloca ptr, align 8
  %9 = alloca ptr, align 8
  %10 = alloca i32, align 4
  %11 = alloca %struct.ForEachState, align 8
  %12 = alloca ptr, align 8
  store ptr %0, ptr %3, align 8
  call void @llvm.lifetime.start.p0(i64 8, ptr %4) #11
  call void @llvm.lifetime.start.p0(i64 8, ptr %5) #11
  call void @llvm.lifetime.start.p0(i64 1, ptr %6) #11
  call void @llvm.lifetime.start.p0(i64 8, ptr %7) #11
  call void @llvm.lifetime.start.p0(i64 8, ptr %8) #11
  call void @llvm.lifetime.start.p0(i64 8, ptr %9) #11
  %13 = load ptr, ptr %3, align 8
  %14 = getelementptr inbounds nuw %struct.RelationData, ptr %13, i32 0, i32 49
  %15 = load ptr, ptr %14, align 8
  %16 = icmp eq ptr %15, null
  br i1 %16, label %22, label %17

17:                                               ; preds = %1
  %18 = load ptr, ptr %3, align 8
  %19 = getelementptr inbounds nuw %struct.RelationData, ptr %18, i32 0, i32 49
  %20 = load ptr, ptr %19, align 8
  %21 = call zeroext i1 @heap_attisnull(ptr noundef %20, i32 noundef 20, ptr noundef null)
  br i1 %21, label %22, label %23

22:                                               ; preds = %17, %1
  store ptr null, ptr %2, align 8
  store i32 1, ptr %10, align 4
  br label %83

23:                                               ; preds = %17
  %24 = load ptr, ptr %3, align 8
  %25 = getelementptr inbounds nuw %struct.RelationData, ptr %24, i32 0, i32 49
  %26 = load ptr, ptr %25, align 8
  %27 = call ptr @GetPgIndexDescriptor()
  %28 = call i64 @heap_getattr(ptr noundef %26, i32 noundef 20, ptr noundef %27, ptr noundef %6)
  store i64 %28, ptr %5, align 8
  %29 = load i64, ptr %5, align 8
  %30 = call ptr @DatumGetPointer(i64 noundef %29)
  %31 = call ptr @text_to_cstring(ptr noundef %30)
  store ptr %31, ptr %7, align 8
  %32 = load ptr, ptr %7, align 8
  %33 = call ptr @stringToNode(ptr noundef %32)
  store ptr %33, ptr %8, align 8
  %34 = load ptr, ptr %7, align 8
  call void @pfree(ptr noundef %34)
  store ptr null, ptr %4, align 8
  call void @llvm.lifetime.start.p0(i64 16, ptr %11) #11
  %35 = getelementptr inbounds nuw %struct.ForEachState, ptr %11, i32 0, i32 0
  %36 = load ptr, ptr %8, align 8
  store ptr %36, ptr %35, align 8
  %37 = getelementptr inbounds nuw %struct.ForEachState, ptr %11, i32 0, i32 1
  store i32 0, ptr %37, align 8
  %38 = getelementptr i8, ptr %11, i64 12
  call void @llvm.memset.p0.i64(ptr align 4 %38, i8 0, i64 4, i1 false)
  br label %39

39:                                               ; preds = %77, %23
  %40 = getelementptr inbounds nuw %struct.ForEachState, ptr %11, i32 0, i32 0
  %41 = load ptr, ptr %40, align 8
  %42 = icmp ne ptr %41, null
  br i1 %42, label %43, label %60

43:                                               ; preds = %39
  %44 = getelementptr inbounds nuw %struct.ForEachState, ptr %11, i32 0, i32 1
  %45 = load i32, ptr %44, align 8
  %46 = getelementptr inbounds nuw %struct.ForEachState, ptr %11, i32 0, i32 0
  %47 = load ptr, ptr %46, align 8
  %48 = getelementptr inbounds nuw %struct.List, ptr %47, i32 0, i32 1
  %49 = load i32, ptr %48, align 4
  %50 = icmp slt i32 %45, %49
  br i1 %50, label %51, label %60

51:                                               ; preds = %43
  %52 = getelementptr inbounds nuw %struct.ForEachState, ptr %11, i32 0, i32 0
  %53 = load ptr, ptr %52, align 8
  %54 = getelementptr inbounds nuw %struct.List, ptr %53, i32 0, i32 3
  %55 = load ptr, ptr %54, align 8
  %56 = getelementptr inbounds nuw %struct.ForEachState, ptr %11, i32 0, i32 1
  %57 = load i32, ptr %56, align 8
  %58 = sext i32 %57 to i64
  %59 = getelementptr inbounds %union.ListCell, ptr %55, i64 %58
  store ptr %59, ptr %9, align 8
  br label %61

60:                                               ; preds = %43, %39
  store ptr null, ptr %9, align 8
  br label %61

61:                                               ; preds = %60, %51
  %62 = phi i32 [ 1, %51 ], [ 0, %60 ]
  %63 = icmp ne i32 %62, 0
  br i1 %63, label %65, label %64

64:                                               ; preds = %61
  store i32 2, ptr %10, align 4
  call void @llvm.lifetime.end.p0(i64 16, ptr %11) #11
  br label %81

65:                                               ; preds = %61
  call void @llvm.lifetime.start.p0(i64 8, ptr %12) #11
  %66 = load ptr, ptr %9, align 8
  %67 = load ptr, ptr %66, align 8
  store ptr %67, ptr %12, align 8
  %68 = load ptr, ptr %4, align 8
  %69 = load ptr, ptr %12, align 8
  %70 = call i32 @exprType(ptr noundef %69)
  %71 = load ptr, ptr %12, align 8
  %72 = call i32 @exprTypmod(ptr noundef %71)
  %73 = load ptr, ptr %12, align 8
  %74 = call i32 @exprCollation(ptr noundef %73)
  %75 = call ptr @makeConst(i32 noundef %70, i32 noundef %72, i32 noundef %74, i32 noundef 1, i64 noundef 0, i1 noundef zeroext true, i1 noundef zeroext true)
  %76 = call ptr @lappend(ptr noundef %68, ptr noundef %75)
  store ptr %76, ptr %4, align 8
  call void @llvm.lifetime.end.p0(i64 8, ptr %12) #11
  br label %77

77:                                               ; preds = %65
  %78 = getelementptr inbounds nuw %struct.ForEachState, ptr %11, i32 0, i32 1
  %79 = load i32, ptr %78, align 8
  %80 = add i32 %79, 1
  store i32 %80, ptr %78, align 8
  br label %39, !llvm.loop !34

81:                                               ; preds = %64
  %82 = load ptr, ptr %4, align 8
  store ptr %82, ptr %2, align 8
  store i32 1, ptr %10, align 4
  br label %83

83:                                               ; preds = %81, %22
  call void @llvm.lifetime.end.p0(i64 8, ptr %9) #11
  call void @llvm.lifetime.end.p0(i64 8, ptr %8) #11
  call void @llvm.lifetime.end.p0(i64 8, ptr %7) #11
  call void @llvm.lifetime.end.p0(i64 1, ptr %6) #11
  call void @llvm.lifetime.end.p0(i64 8, ptr %5) #11
  call void @llvm.lifetime.end.p0(i64 8, ptr %4) #11
  %84 = load ptr, ptr %2, align 8
  ret ptr %84
}