; Function Attrs: nounwind uwtable
define dso_local ptr @RelationGetDummyIndexExpressions(ptr noundef readonly captures(none) %0) local_unnamed_addr #0 {
  %2 = alloca i8, align 1
  call void @llvm.lifetime.start.p0(i64 1, ptr nonnull %2) #13
  %3 = getelementptr inbounds nuw i8, ptr %0, i64 336
  %4 = load ptr, ptr %3, align 8
  %5 = icmp eq ptr %4, null
  br i1 %5, label %.thread, label %6

6:                                                ; preds = %1
  %7 = tail call zeroext i1 @heap_attisnull(ptr noundef nonnull %4, i32 noundef 20, ptr noundef null) #13
  br i1 %7, label %.thread, label %8

8:                                                ; preds = %6
  %9 = load ptr, ptr %3, align 8
  %10 = load ptr, ptr @GetPgIndexDescriptor.pgindexdesc, align 8
  %11 = icmp eq ptr %10, null
  br i1 %11, label %12, label %GetPgIndexDescriptor.exit

12:                                               ; preds = %8
  %13 = load ptr, ptr @CacheMemoryContext, align 8
  %14 = load ptr, ptr @CurrentMemoryContext, align 8
  store ptr %13, ptr @CurrentMemoryContext, align 8
  %15 = tail call ptr @CreateTemplateTupleDesc(i32 noundef 21) #13
  %16 = getelementptr inbounds nuw i8, ptr %15, i64 4
  store i32 2249, ptr %16, align 4
  %17 = getelementptr inbounds nuw i8, ptr %15, i64 8
  store i32 -1, ptr %17, align 8
  %invariant.gep.i.i = getelementptr i8, ptr %15, i64 24
  br label %18

18:                                               ; preds = %18, %12
  %indvars.iv.i.i = phi i64 [ 0, %12 ], [ %indvars.iv.next.i.i, %18 ]
  %19 = load i32, ptr %15, align 8
  %20 = sext i32 %19 to i64
  %21 = shl nsw i64 %20, 4
  %gep.i.i = getelementptr i8, ptr %invariant.gep.i.i, i64 %21
  %22 = getelementptr inbounds nuw %struct.FormData_pg_attribute, ptr %gep.i.i, i64 %indvars.iv.i.i
  %23 = getelementptr inbounds nuw %struct.FormData_pg_attribute, ptr @Desc_pg_index, i64 %indvars.iv.i.i
  tail call void @llvm.memcpy.p0.p0.i64(ptr noundef nonnull align 4 dereferenceable(100) %22, ptr noundef nonnull readonly align 4 dereferenceable(100) %23, i64 100, i1 false)
  %24 = trunc nuw nsw i64 %indvars.iv.i.i to i32
  tail call void @populate_compact_attribute(ptr noundef nonnull %15, i32 noundef %24) #13
  %indvars.iv.next.i.i = add nuw nsw i64 %indvars.iv.i.i, 1
  %exitcond.not.i.i = icmp eq i64 %indvars.iv.next.i.i, 21
  br i1 %exitcond.not.i.i, label %BuildHardcodedDescriptor.exit.i, label %18, !llvm.loop !4

BuildHardcodedDescriptor.exit.i:                  ; preds = %18
  store i32 0, ptr %invariant.gep.i.i, align 4
  store ptr %14, ptr @CurrentMemoryContext, align 8
  store ptr %15, ptr @GetPgIndexDescriptor.pgindexdesc, align 8
  br label %GetPgIndexDescriptor.exit

GetPgIndexDescriptor.exit:                        ; preds = %8, %BuildHardcodedDescriptor.exit.i
  %25 = phi ptr [ %15, %BuildHardcodedDescriptor.exit.i ], [ %10, %8 ]
  %26 = getelementptr inbounds nuw i8, ptr %9, i64 16
  %27 = load ptr, ptr %26, align 8
  %28 = getelementptr inbounds nuw i8, ptr %27, i64 18
  %29 = load i16, ptr %28, align 2
  %30 = and i16 %29, 2044
  %31 = icmp samesign ult i16 %30, 20
  br i1 %31, label %32, label %34

32:                                               ; preds = %GetPgIndexDescriptor.exit
  %33 = call i64 @getmissingattr(ptr noundef nonnull %25, i32 noundef 20, ptr noundef nonnull %2) #13
  br label %heap_getattr.exit

34:                                               ; preds = %GetPgIndexDescriptor.exit
  %35 = call fastcc i64 @fastgetattr(ptr noundef nonnull %9, i32 noundef 20, ptr noundef nonnull %25, ptr noundef nonnull %2)
  br label %heap_getattr.exit

heap_getattr.exit:                                ; preds = %32, %34
  %.0.i = phi i64 [ %33, %32 ], [ %35, %34 ]
  %36 = inttoptr i64 %.0.i to ptr
  %37 = call ptr @text_to_cstring(ptr noundef %36) #13
  %38 = call ptr @stringToNode(ptr noundef %37) #13
  call void @pfree(ptr noundef %37) #13
  %39 = getelementptr inbounds nuw i8, ptr %38, i64 4
  %.not = icmp eq ptr %38, null
  br i1 %.not, label %.thread, label %.lr.ph

.lr.ph:                                           ; preds = %heap_getattr.exit
  %40 = getelementptr inbounds nuw i8, ptr %38, i64 16
  %41 = load i32, ptr %39, align 4
  %42 = icmp sgt i32 %41, 0
  br i1 %42, label %.lr.ph31, label %.thread

.lr.ph31:                                         ; preds = %.lr.ph, %.lr.ph31
  %indvars.iv = phi i64 [ %indvars.iv.next, %.lr.ph31 ], [ 0, %.lr.ph ]
  %.0172529 = phi ptr [ %50, %.lr.ph31 ], [ null, %.lr.ph ]
  %43 = load ptr, ptr %40, align 8
  %44 = getelementptr inbounds nuw %union.ListCell, ptr %43, i64 %indvars.iv
  %45 = load ptr, ptr %44, align 8
  %46 = call i32 @exprType(ptr noundef %45) #13
  %47 = call i32 @exprTypmod(ptr noundef %45) #13
  %48 = call i32 @exprCollation(ptr noundef %45) #13
  %49 = call ptr @makeConst(i32 noundef %46, i32 noundef %47, i32 noundef %48, i32 noundef 1, i64 noundef 0, i1 noundef zeroext true, i1 noundef zeroext true) #13
  %50 = call ptr @lappend(ptr noundef %.0172529, ptr noundef %49) #13
  %indvars.iv.next = add nuw nsw i64 %indvars.iv, 1
  %51 = load i32, ptr %39, align 4
  %52 = sext i32 %51 to i64
  %53 = icmp slt i64 %indvars.iv.next, %52
  br i1 %53, label %.lr.ph31, label %.thread

.thread:                                          ; preds = %.lr.ph31, %heap_getattr.exit, %.lr.ph, %1, %6
  %.0 = phi ptr [ null, %6 ], [ null, %1 ], [ null, %heap_getattr.exit ], [ null, %.lr.ph ], [ %50, %.lr.ph31 ]
  call void @llvm.lifetime.end.p0(i64 1, ptr nonnull %2) #13
  ret ptr %.0
}